ARM GAS  C:\Users\virtu\AppData\Local\Temp\ccqpuMug.s 			page 1


   1              		.cpu cortex-m4
   2              		.arch armv7e-m
   3              		.fpu fpv4-sp-d16
   4              		.eabi_attribute 27, 1
   5              		.eabi_attribute 28, 1
   6              		.eabi_attribute 20, 1
   7              		.eabi_attribute 21, 1
   8              		.eabi_attribute 23, 3
   9              		.eabi_attribute 24, 1
  10              		.eabi_attribute 25, 1
  11              		.eabi_attribute 26, 1
  12              		.eabi_attribute 30, 1
  13              		.eabi_attribute 34, 1
  14              		.eabi_attribute 18, 4
  15              		.file	"stm32f4xx_hal_msp.c"
  16              		.text
  17              	.Ltext0:
  18              		.cfi_sections	.debug_frame
  19              		.section	.text.HAL_MspInit,"ax",%progbits
  20              		.align	1
  21              		.global	HAL_MspInit
  22              		.syntax unified
  23              		.thumb
  24              		.thumb_func
  26              	HAL_MspInit:
  27              	.LFB130:
  28              		.file 1 "Core/Src/stm32f4xx_hal_msp.c"
   1:Core/Src/stm32f4xx_hal_msp.c **** /* USER CODE BEGIN Header */
   2:Core/Src/stm32f4xx_hal_msp.c **** /**
   3:Core/Src/stm32f4xx_hal_msp.c ****   ******************************************************************************
   4:Core/Src/stm32f4xx_hal_msp.c ****   * @file         stm32f4xx_hal_msp.c
   5:Core/Src/stm32f4xx_hal_msp.c ****   * @brief        This file provides code for the MSP Initialization
   6:Core/Src/stm32f4xx_hal_msp.c ****   *               and de-Initialization codes.
   7:Core/Src/stm32f4xx_hal_msp.c ****   ******************************************************************************
   8:Core/Src/stm32f4xx_hal_msp.c ****   * @attention
   9:Core/Src/stm32f4xx_hal_msp.c ****   *
  10:Core/Src/stm32f4xx_hal_msp.c ****   * Copyright (c) 2023 STMicroelectronics.
  11:Core/Src/stm32f4xx_hal_msp.c ****   * All rights reserved.
  12:Core/Src/stm32f4xx_hal_msp.c ****   *
  13:Core/Src/stm32f4xx_hal_msp.c ****   * This software is licensed under terms that can be found in the LICENSE file
  14:Core/Src/stm32f4xx_hal_msp.c ****   * in the root directory of this software component.
  15:Core/Src/stm32f4xx_hal_msp.c ****   * If no LICENSE file comes with this software, it is provided AS-IS.
  16:Core/Src/stm32f4xx_hal_msp.c ****   *
  17:Core/Src/stm32f4xx_hal_msp.c ****   ******************************************************************************
  18:Core/Src/stm32f4xx_hal_msp.c ****   */
  19:Core/Src/stm32f4xx_hal_msp.c **** /* USER CODE END Header */
  20:Core/Src/stm32f4xx_hal_msp.c **** 
  21:Core/Src/stm32f4xx_hal_msp.c **** /* Includes ------------------------------------------------------------------*/
  22:Core/Src/stm32f4xx_hal_msp.c **** #include "main.h"
  23:Core/Src/stm32f4xx_hal_msp.c **** /* USER CODE BEGIN Includes */
  24:Core/Src/stm32f4xx_hal_msp.c **** 
  25:Core/Src/stm32f4xx_hal_msp.c **** /* USER CODE END Includes */
  26:Core/Src/stm32f4xx_hal_msp.c **** 
  27:Core/Src/stm32f4xx_hal_msp.c **** /* Private typedef -----------------------------------------------------------*/
  28:Core/Src/stm32f4xx_hal_msp.c **** /* USER CODE BEGIN TD */
  29:Core/Src/stm32f4xx_hal_msp.c **** 
  30:Core/Src/stm32f4xx_hal_msp.c **** /* USER CODE END TD */
ARM GAS  C:\Users\virtu\AppData\Local\Temp\ccqpuMug.s 			page 2


  31:Core/Src/stm32f4xx_hal_msp.c **** 
  32:Core/Src/stm32f4xx_hal_msp.c **** /* Private define ------------------------------------------------------------*/
  33:Core/Src/stm32f4xx_hal_msp.c **** /* USER CODE BEGIN Define */
  34:Core/Src/stm32f4xx_hal_msp.c **** 
  35:Core/Src/stm32f4xx_hal_msp.c **** /* USER CODE END Define */
  36:Core/Src/stm32f4xx_hal_msp.c **** 
  37:Core/Src/stm32f4xx_hal_msp.c **** /* Private macro -------------------------------------------------------------*/
  38:Core/Src/stm32f4xx_hal_msp.c **** /* USER CODE BEGIN Macro */
  39:Core/Src/stm32f4xx_hal_msp.c **** 
  40:Core/Src/stm32f4xx_hal_msp.c **** /* USER CODE END Macro */
  41:Core/Src/stm32f4xx_hal_msp.c **** 
  42:Core/Src/stm32f4xx_hal_msp.c **** /* Private variables ---------------------------------------------------------*/
  43:Core/Src/stm32f4xx_hal_msp.c **** /* USER CODE BEGIN PV */
  44:Core/Src/stm32f4xx_hal_msp.c **** 
  45:Core/Src/stm32f4xx_hal_msp.c **** /* USER CODE END PV */
  46:Core/Src/stm32f4xx_hal_msp.c **** 
  47:Core/Src/stm32f4xx_hal_msp.c **** /* Private function prototypes -----------------------------------------------*/
  48:Core/Src/stm32f4xx_hal_msp.c **** /* USER CODE BEGIN PFP */
  49:Core/Src/stm32f4xx_hal_msp.c **** 
  50:Core/Src/stm32f4xx_hal_msp.c **** /* USER CODE END PFP */
  51:Core/Src/stm32f4xx_hal_msp.c **** 
  52:Core/Src/stm32f4xx_hal_msp.c **** /* External functions --------------------------------------------------------*/
  53:Core/Src/stm32f4xx_hal_msp.c **** /* USER CODE BEGIN ExternalFunctions */
  54:Core/Src/stm32f4xx_hal_msp.c **** 
  55:Core/Src/stm32f4xx_hal_msp.c **** /* USER CODE END ExternalFunctions */
  56:Core/Src/stm32f4xx_hal_msp.c **** 
  57:Core/Src/stm32f4xx_hal_msp.c **** /* USER CODE BEGIN 0 */
  58:Core/Src/stm32f4xx_hal_msp.c **** 
  59:Core/Src/stm32f4xx_hal_msp.c **** /* USER CODE END 0 */
  60:Core/Src/stm32f4xx_hal_msp.c **** /**
  61:Core/Src/stm32f4xx_hal_msp.c ****   * Initializes the Global MSP.
  62:Core/Src/stm32f4xx_hal_msp.c ****   */
  63:Core/Src/stm32f4xx_hal_msp.c **** void HAL_MspInit(void)
  64:Core/Src/stm32f4xx_hal_msp.c **** {
  29              		.loc 1 64 1 view -0
  30              		.cfi_startproc
  31              		@ args = 0, pretend = 0, frame = 8
  32              		@ frame_needed = 0, uses_anonymous_args = 0
  33              		@ link register save eliminated.
  34 0000 82B0     		sub	sp, sp, #8
  35              	.LCFI0:
  36              		.cfi_def_cfa_offset 8
  65:Core/Src/stm32f4xx_hal_msp.c ****   /* USER CODE BEGIN MspInit 0 */
  66:Core/Src/stm32f4xx_hal_msp.c **** 
  67:Core/Src/stm32f4xx_hal_msp.c ****   /* USER CODE END MspInit 0 */
  68:Core/Src/stm32f4xx_hal_msp.c **** 
  69:Core/Src/stm32f4xx_hal_msp.c ****   __HAL_RCC_SYSCFG_CLK_ENABLE();
  37              		.loc 1 69 3 view .LVU1
  38              	.LBB2:
  39              		.loc 1 69 3 view .LVU2
  40 0002 0021     		movs	r1, #0
  41 0004 0091     		str	r1, [sp]
  42              		.loc 1 69 3 view .LVU3
  43 0006 0B4B     		ldr	r3, .L3
  44 0008 5A6C     		ldr	r2, [r3, #68]
  45 000a 42F48042 		orr	r2, r2, #16384
  46 000e 5A64     		str	r2, [r3, #68]
ARM GAS  C:\Users\virtu\AppData\Local\Temp\ccqpuMug.s 			page 3


  47              		.loc 1 69 3 view .LVU4
  48 0010 5A6C     		ldr	r2, [r3, #68]
  49 0012 02F48042 		and	r2, r2, #16384
  50 0016 0092     		str	r2, [sp]
  51              		.loc 1 69 3 view .LVU5
  52 0018 009A     		ldr	r2, [sp]
  53              	.LBE2:
  54              		.loc 1 69 3 view .LVU6
  70:Core/Src/stm32f4xx_hal_msp.c ****   __HAL_RCC_PWR_CLK_ENABLE();
  55              		.loc 1 70 3 view .LVU7
  56              	.LBB3:
  57              		.loc 1 70 3 view .LVU8
  58 001a 0191     		str	r1, [sp, #4]
  59              		.loc 1 70 3 view .LVU9
  60 001c 1A6C     		ldr	r2, [r3, #64]
  61 001e 42F08052 		orr	r2, r2, #268435456
  62 0022 1A64     		str	r2, [r3, #64]
  63              		.loc 1 70 3 view .LVU10
  64 0024 1B6C     		ldr	r3, [r3, #64]
  65 0026 03F08053 		and	r3, r3, #268435456
  66 002a 0193     		str	r3, [sp, #4]
  67              		.loc 1 70 3 view .LVU11
  68 002c 019B     		ldr	r3, [sp, #4]
  69              	.LBE3:
  70              		.loc 1 70 3 view .LVU12
  71:Core/Src/stm32f4xx_hal_msp.c **** 
  72:Core/Src/stm32f4xx_hal_msp.c ****   /* System interrupt init*/
  73:Core/Src/stm32f4xx_hal_msp.c **** 
  74:Core/Src/stm32f4xx_hal_msp.c ****   /* USER CODE BEGIN MspInit 1 */
  75:Core/Src/stm32f4xx_hal_msp.c **** 
  76:Core/Src/stm32f4xx_hal_msp.c ****   /* USER CODE END MspInit 1 */
  77:Core/Src/stm32f4xx_hal_msp.c **** }
  71              		.loc 1 77 1 is_stmt 0 view .LVU13
  72 002e 02B0     		add	sp, sp, #8
  73              	.LCFI1:
  74              		.cfi_def_cfa_offset 0
  75              		@ sp needed
  76 0030 7047     		bx	lr
  77              	.L4:
  78 0032 00BF     		.align	2
  79              	.L3:
  80 0034 00380240 		.word	1073887232
  81              		.cfi_endproc
  82              	.LFE130:
  84              		.section	.text.HAL_SPI_MspInit,"ax",%progbits
  85              		.align	1
  86              		.global	HAL_SPI_MspInit
  87              		.syntax unified
  88              		.thumb
  89              		.thumb_func
  91              	HAL_SPI_MspInit:
  92              	.LVL0:
  93              	.LFB131:
  78:Core/Src/stm32f4xx_hal_msp.c **** 
  79:Core/Src/stm32f4xx_hal_msp.c **** /**
  80:Core/Src/stm32f4xx_hal_msp.c **** * @brief SPI MSP Initialization
  81:Core/Src/stm32f4xx_hal_msp.c **** * This function configures the hardware resources used in this example
ARM GAS  C:\Users\virtu\AppData\Local\Temp\ccqpuMug.s 			page 4


  82:Core/Src/stm32f4xx_hal_msp.c **** * @param hspi: SPI handle pointer
  83:Core/Src/stm32f4xx_hal_msp.c **** * @retval None
  84:Core/Src/stm32f4xx_hal_msp.c **** */
  85:Core/Src/stm32f4xx_hal_msp.c **** void HAL_SPI_MspInit(SPI_HandleTypeDef* hspi)
  86:Core/Src/stm32f4xx_hal_msp.c **** {
  94              		.loc 1 86 1 is_stmt 1 view -0
  95              		.cfi_startproc
  96              		@ args = 0, pretend = 0, frame = 40
  97              		@ frame_needed = 0, uses_anonymous_args = 0
  98              		.loc 1 86 1 is_stmt 0 view .LVU15
  99 0000 F0B5     		push	{r4, r5, r6, r7, lr}
 100              	.LCFI2:
 101              		.cfi_def_cfa_offset 20
 102              		.cfi_offset 4, -20
 103              		.cfi_offset 5, -16
 104              		.cfi_offset 6, -12
 105              		.cfi_offset 7, -8
 106              		.cfi_offset 14, -4
 107 0002 8BB0     		sub	sp, sp, #44
 108              	.LCFI3:
 109              		.cfi_def_cfa_offset 64
  87:Core/Src/stm32f4xx_hal_msp.c ****   GPIO_InitTypeDef GPIO_InitStruct = {0};
 110              		.loc 1 87 3 is_stmt 1 view .LVU16
 111              		.loc 1 87 20 is_stmt 0 view .LVU17
 112 0004 0023     		movs	r3, #0
 113 0006 0593     		str	r3, [sp, #20]
 114 0008 0693     		str	r3, [sp, #24]
 115 000a 0793     		str	r3, [sp, #28]
 116 000c 0893     		str	r3, [sp, #32]
 117 000e 0993     		str	r3, [sp, #36]
  88:Core/Src/stm32f4xx_hal_msp.c ****   if(hspi->Instance==SPI1)
 118              		.loc 1 88 3 is_stmt 1 view .LVU18
 119              		.loc 1 88 10 is_stmt 0 view .LVU19
 120 0010 0368     		ldr	r3, [r0]
 121              		.loc 1 88 5 view .LVU20
 122 0012 2D4A     		ldr	r2, .L11
 123 0014 9342     		cmp	r3, r2
 124 0016 04D0     		beq	.L9
  89:Core/Src/stm32f4xx_hal_msp.c ****   {
  90:Core/Src/stm32f4xx_hal_msp.c ****   /* USER CODE BEGIN SPI1_MspInit 0 */
  91:Core/Src/stm32f4xx_hal_msp.c **** 
  92:Core/Src/stm32f4xx_hal_msp.c ****   /* USER CODE END SPI1_MspInit 0 */
  93:Core/Src/stm32f4xx_hal_msp.c ****     /* Peripheral clock enable */
  94:Core/Src/stm32f4xx_hal_msp.c ****     __HAL_RCC_SPI1_CLK_ENABLE();
  95:Core/Src/stm32f4xx_hal_msp.c **** 
  96:Core/Src/stm32f4xx_hal_msp.c ****     __HAL_RCC_GPIOA_CLK_ENABLE();
  97:Core/Src/stm32f4xx_hal_msp.c ****     /**SPI1 GPIO Configuration
  98:Core/Src/stm32f4xx_hal_msp.c ****     PA5     ------> SPI1_SCK
  99:Core/Src/stm32f4xx_hal_msp.c ****     PA6     ------> SPI1_MISO
 100:Core/Src/stm32f4xx_hal_msp.c ****     PA7     ------> SPI1_MOSI
 101:Core/Src/stm32f4xx_hal_msp.c ****     */
 102:Core/Src/stm32f4xx_hal_msp.c ****     GPIO_InitStruct.Pin = GPIO_PIN_5|GPIO_PIN_6;
 103:Core/Src/stm32f4xx_hal_msp.c ****     GPIO_InitStruct.Mode = GPIO_MODE_AF_PP;
 104:Core/Src/stm32f4xx_hal_msp.c ****     GPIO_InitStruct.Pull = GPIO_NOPULL;
 105:Core/Src/stm32f4xx_hal_msp.c ****     GPIO_InitStruct.Speed = GPIO_SPEED_FREQ_VERY_HIGH;
 106:Core/Src/stm32f4xx_hal_msp.c ****     GPIO_InitStruct.Alternate = GPIO_AF5_SPI1;
 107:Core/Src/stm32f4xx_hal_msp.c ****     HAL_GPIO_Init(GPIOA, &GPIO_InitStruct);
ARM GAS  C:\Users\virtu\AppData\Local\Temp\ccqpuMug.s 			page 5


 108:Core/Src/stm32f4xx_hal_msp.c **** 
 109:Core/Src/stm32f4xx_hal_msp.c ****     GPIO_InitStruct.Pin = GPIO_PIN_7;
 110:Core/Src/stm32f4xx_hal_msp.c ****     GPIO_InitStruct.Mode = GPIO_MODE_AF_PP;
 111:Core/Src/stm32f4xx_hal_msp.c ****     GPIO_InitStruct.Pull = GPIO_PULLDOWN;
 112:Core/Src/stm32f4xx_hal_msp.c ****     GPIO_InitStruct.Speed = GPIO_SPEED_FREQ_VERY_HIGH;
 113:Core/Src/stm32f4xx_hal_msp.c ****     GPIO_InitStruct.Alternate = GPIO_AF5_SPI1;
 114:Core/Src/stm32f4xx_hal_msp.c ****     HAL_GPIO_Init(GPIOA, &GPIO_InitStruct);
 115:Core/Src/stm32f4xx_hal_msp.c **** 
 116:Core/Src/stm32f4xx_hal_msp.c ****   /* USER CODE BEGIN SPI1_MspInit 1 */
 117:Core/Src/stm32f4xx_hal_msp.c **** 
 118:Core/Src/stm32f4xx_hal_msp.c ****   /* USER CODE END SPI1_MspInit 1 */
 119:Core/Src/stm32f4xx_hal_msp.c ****   }
 120:Core/Src/stm32f4xx_hal_msp.c ****   else if(hspi->Instance==SPI2)
 125              		.loc 1 120 8 is_stmt 1 view .LVU21
 126              		.loc 1 120 10 is_stmt 0 view .LVU22
 127 0018 2C4A     		ldr	r2, .L11+4
 128 001a 9342     		cmp	r3, r2
 129 001c 2FD0     		beq	.L10
 130              	.LVL1:
 131              	.L5:
 121:Core/Src/stm32f4xx_hal_msp.c ****   {
 122:Core/Src/stm32f4xx_hal_msp.c ****   /* USER CODE BEGIN SPI2_MspInit 0 */
 123:Core/Src/stm32f4xx_hal_msp.c **** 
 124:Core/Src/stm32f4xx_hal_msp.c ****   /* USER CODE END SPI2_MspInit 0 */
 125:Core/Src/stm32f4xx_hal_msp.c ****     /* Peripheral clock enable */
 126:Core/Src/stm32f4xx_hal_msp.c ****     __HAL_RCC_SPI2_CLK_ENABLE();
 127:Core/Src/stm32f4xx_hal_msp.c **** 
 128:Core/Src/stm32f4xx_hal_msp.c ****     __HAL_RCC_GPIOB_CLK_ENABLE();
 129:Core/Src/stm32f4xx_hal_msp.c ****     /**SPI2 GPIO Configuration
 130:Core/Src/stm32f4xx_hal_msp.c ****     PB13     ------> SPI2_SCK
 131:Core/Src/stm32f4xx_hal_msp.c ****     PB14     ------> SPI2_MISO
 132:Core/Src/stm32f4xx_hal_msp.c ****     PB15     ------> SPI2_MOSI
 133:Core/Src/stm32f4xx_hal_msp.c ****     */
 134:Core/Src/stm32f4xx_hal_msp.c ****     GPIO_InitStruct.Pin = GPIO_PIN_13|GPIO_PIN_14|GPIO_PIN_15;
 135:Core/Src/stm32f4xx_hal_msp.c ****     GPIO_InitStruct.Mode = GPIO_MODE_AF_PP;
 136:Core/Src/stm32f4xx_hal_msp.c ****     GPIO_InitStruct.Pull = GPIO_NOPULL;
 137:Core/Src/stm32f4xx_hal_msp.c ****     GPIO_InitStruct.Speed = GPIO_SPEED_FREQ_VERY_HIGH;
 138:Core/Src/stm32f4xx_hal_msp.c ****     GPIO_InitStruct.Alternate = GPIO_AF5_SPI2;
 139:Core/Src/stm32f4xx_hal_msp.c ****     HAL_GPIO_Init(GPIOB, &GPIO_InitStruct);
 140:Core/Src/stm32f4xx_hal_msp.c **** 
 141:Core/Src/stm32f4xx_hal_msp.c ****   /* USER CODE BEGIN SPI2_MspInit 1 */
 142:Core/Src/stm32f4xx_hal_msp.c **** 
 143:Core/Src/stm32f4xx_hal_msp.c ****   /* USER CODE END SPI2_MspInit 1 */
 144:Core/Src/stm32f4xx_hal_msp.c ****   }
 145:Core/Src/stm32f4xx_hal_msp.c **** 
 146:Core/Src/stm32f4xx_hal_msp.c **** }
 132              		.loc 1 146 1 view .LVU23
 133 001e 0BB0     		add	sp, sp, #44
 134              	.LCFI4:
 135              		.cfi_remember_state
 136              		.cfi_def_cfa_offset 20
 137              		@ sp needed
 138 0020 F0BD     		pop	{r4, r5, r6, r7, pc}
 139              	.LVL2:
 140              	.L9:
 141              	.LCFI5:
 142              		.cfi_restore_state
ARM GAS  C:\Users\virtu\AppData\Local\Temp\ccqpuMug.s 			page 6


  94:Core/Src/stm32f4xx_hal_msp.c **** 
 143              		.loc 1 94 5 is_stmt 1 view .LVU24
 144              	.LBB4:
  94:Core/Src/stm32f4xx_hal_msp.c **** 
 145              		.loc 1 94 5 view .LVU25
 146 0022 0021     		movs	r1, #0
 147 0024 0191     		str	r1, [sp, #4]
  94:Core/Src/stm32f4xx_hal_msp.c **** 
 148              		.loc 1 94 5 view .LVU26
 149 0026 2A4B     		ldr	r3, .L11+8
 150 0028 5A6C     		ldr	r2, [r3, #68]
 151 002a 42F48052 		orr	r2, r2, #4096
 152 002e 5A64     		str	r2, [r3, #68]
  94:Core/Src/stm32f4xx_hal_msp.c **** 
 153              		.loc 1 94 5 view .LVU27
 154 0030 5A6C     		ldr	r2, [r3, #68]
 155 0032 02F48052 		and	r2, r2, #4096
 156 0036 0192     		str	r2, [sp, #4]
  94:Core/Src/stm32f4xx_hal_msp.c **** 
 157              		.loc 1 94 5 view .LVU28
 158 0038 019A     		ldr	r2, [sp, #4]
 159              	.LBE4:
  94:Core/Src/stm32f4xx_hal_msp.c **** 
 160              		.loc 1 94 5 view .LVU29
  96:Core/Src/stm32f4xx_hal_msp.c ****     /**SPI1 GPIO Configuration
 161              		.loc 1 96 5 view .LVU30
 162              	.LBB5:
  96:Core/Src/stm32f4xx_hal_msp.c ****     /**SPI1 GPIO Configuration
 163              		.loc 1 96 5 view .LVU31
 164 003a 0291     		str	r1, [sp, #8]
  96:Core/Src/stm32f4xx_hal_msp.c ****     /**SPI1 GPIO Configuration
 165              		.loc 1 96 5 view .LVU32
 166 003c 1A6B     		ldr	r2, [r3, #48]
 167 003e 42F00102 		orr	r2, r2, #1
 168 0042 1A63     		str	r2, [r3, #48]
  96:Core/Src/stm32f4xx_hal_msp.c ****     /**SPI1 GPIO Configuration
 169              		.loc 1 96 5 view .LVU33
 170 0044 1B6B     		ldr	r3, [r3, #48]
 171 0046 03F00103 		and	r3, r3, #1
 172 004a 0293     		str	r3, [sp, #8]
  96:Core/Src/stm32f4xx_hal_msp.c ****     /**SPI1 GPIO Configuration
 173              		.loc 1 96 5 view .LVU34
 174 004c 029B     		ldr	r3, [sp, #8]
 175              	.LBE5:
  96:Core/Src/stm32f4xx_hal_msp.c ****     /**SPI1 GPIO Configuration
 176              		.loc 1 96 5 view .LVU35
 102:Core/Src/stm32f4xx_hal_msp.c ****     GPIO_InitStruct.Mode = GPIO_MODE_AF_PP;
 177              		.loc 1 102 5 view .LVU36
 102:Core/Src/stm32f4xx_hal_msp.c ****     GPIO_InitStruct.Mode = GPIO_MODE_AF_PP;
 178              		.loc 1 102 25 is_stmt 0 view .LVU37
 179 004e 6023     		movs	r3, #96
 180 0050 0593     		str	r3, [sp, #20]
 103:Core/Src/stm32f4xx_hal_msp.c ****     GPIO_InitStruct.Pull = GPIO_NOPULL;
 181              		.loc 1 103 5 is_stmt 1 view .LVU38
 103:Core/Src/stm32f4xx_hal_msp.c ****     GPIO_InitStruct.Pull = GPIO_NOPULL;
 182              		.loc 1 103 26 is_stmt 0 view .LVU39
 183 0052 0224     		movs	r4, #2
ARM GAS  C:\Users\virtu\AppData\Local\Temp\ccqpuMug.s 			page 7


 184 0054 0694     		str	r4, [sp, #24]
 104:Core/Src/stm32f4xx_hal_msp.c ****     GPIO_InitStruct.Speed = GPIO_SPEED_FREQ_VERY_HIGH;
 185              		.loc 1 104 5 is_stmt 1 view .LVU40
 105:Core/Src/stm32f4xx_hal_msp.c ****     GPIO_InitStruct.Alternate = GPIO_AF5_SPI1;
 186              		.loc 1 105 5 view .LVU41
 105:Core/Src/stm32f4xx_hal_msp.c ****     GPIO_InitStruct.Alternate = GPIO_AF5_SPI1;
 187              		.loc 1 105 27 is_stmt 0 view .LVU42
 188 0056 0327     		movs	r7, #3
 189 0058 0897     		str	r7, [sp, #32]
 106:Core/Src/stm32f4xx_hal_msp.c ****     HAL_GPIO_Init(GPIOA, &GPIO_InitStruct);
 190              		.loc 1 106 5 is_stmt 1 view .LVU43
 106:Core/Src/stm32f4xx_hal_msp.c ****     HAL_GPIO_Init(GPIOA, &GPIO_InitStruct);
 191              		.loc 1 106 31 is_stmt 0 view .LVU44
 192 005a 0526     		movs	r6, #5
 193 005c 0996     		str	r6, [sp, #36]
 107:Core/Src/stm32f4xx_hal_msp.c **** 
 194              		.loc 1 107 5 is_stmt 1 view .LVU45
 195 005e 1D4D     		ldr	r5, .L11+12
 196 0060 05A9     		add	r1, sp, #20
 197 0062 2846     		mov	r0, r5
 198              	.LVL3:
 107:Core/Src/stm32f4xx_hal_msp.c **** 
 199              		.loc 1 107 5 is_stmt 0 view .LVU46
 200 0064 FFF7FEFF 		bl	HAL_GPIO_Init
 201              	.LVL4:
 109:Core/Src/stm32f4xx_hal_msp.c ****     GPIO_InitStruct.Mode = GPIO_MODE_AF_PP;
 202              		.loc 1 109 5 is_stmt 1 view .LVU47
 109:Core/Src/stm32f4xx_hal_msp.c ****     GPIO_InitStruct.Mode = GPIO_MODE_AF_PP;
 203              		.loc 1 109 25 is_stmt 0 view .LVU48
 204 0068 8023     		movs	r3, #128
 205 006a 0593     		str	r3, [sp, #20]
 110:Core/Src/stm32f4xx_hal_msp.c ****     GPIO_InitStruct.Pull = GPIO_PULLDOWN;
 206              		.loc 1 110 5 is_stmt 1 view .LVU49
 110:Core/Src/stm32f4xx_hal_msp.c ****     GPIO_InitStruct.Pull = GPIO_PULLDOWN;
 207              		.loc 1 110 26 is_stmt 0 view .LVU50
 208 006c 0694     		str	r4, [sp, #24]
 111:Core/Src/stm32f4xx_hal_msp.c ****     GPIO_InitStruct.Speed = GPIO_SPEED_FREQ_VERY_HIGH;
 209              		.loc 1 111 5 is_stmt 1 view .LVU51
 111:Core/Src/stm32f4xx_hal_msp.c ****     GPIO_InitStruct.Speed = GPIO_SPEED_FREQ_VERY_HIGH;
 210              		.loc 1 111 26 is_stmt 0 view .LVU52
 211 006e 0794     		str	r4, [sp, #28]
 112:Core/Src/stm32f4xx_hal_msp.c ****     GPIO_InitStruct.Alternate = GPIO_AF5_SPI1;
 212              		.loc 1 112 5 is_stmt 1 view .LVU53
 112:Core/Src/stm32f4xx_hal_msp.c ****     GPIO_InitStruct.Alternate = GPIO_AF5_SPI1;
 213              		.loc 1 112 27 is_stmt 0 view .LVU54
 214 0070 0897     		str	r7, [sp, #32]
 113:Core/Src/stm32f4xx_hal_msp.c ****     HAL_GPIO_Init(GPIOA, &GPIO_InitStruct);
 215              		.loc 1 113 5 is_stmt 1 view .LVU55
 113:Core/Src/stm32f4xx_hal_msp.c ****     HAL_GPIO_Init(GPIOA, &GPIO_InitStruct);
 216              		.loc 1 113 31 is_stmt 0 view .LVU56
 217 0072 0996     		str	r6, [sp, #36]
 114:Core/Src/stm32f4xx_hal_msp.c **** 
 218              		.loc 1 114 5 is_stmt 1 view .LVU57
 219 0074 05A9     		add	r1, sp, #20
 220 0076 2846     		mov	r0, r5
 221 0078 FFF7FEFF 		bl	HAL_GPIO_Init
 222              	.LVL5:
ARM GAS  C:\Users\virtu\AppData\Local\Temp\ccqpuMug.s 			page 8


 223 007c CFE7     		b	.L5
 224              	.LVL6:
 225              	.L10:
 126:Core/Src/stm32f4xx_hal_msp.c **** 
 226              		.loc 1 126 5 view .LVU58
 227              	.LBB6:
 126:Core/Src/stm32f4xx_hal_msp.c **** 
 228              		.loc 1 126 5 view .LVU59
 229 007e 0021     		movs	r1, #0
 230 0080 0391     		str	r1, [sp, #12]
 126:Core/Src/stm32f4xx_hal_msp.c **** 
 231              		.loc 1 126 5 view .LVU60
 232 0082 134B     		ldr	r3, .L11+8
 233 0084 1A6C     		ldr	r2, [r3, #64]
 234 0086 42F48042 		orr	r2, r2, #16384
 235 008a 1A64     		str	r2, [r3, #64]
 126:Core/Src/stm32f4xx_hal_msp.c **** 
 236              		.loc 1 126 5 view .LVU61
 237 008c 1A6C     		ldr	r2, [r3, #64]
 238 008e 02F48042 		and	r2, r2, #16384
 239 0092 0392     		str	r2, [sp, #12]
 126:Core/Src/stm32f4xx_hal_msp.c **** 
 240              		.loc 1 126 5 view .LVU62
 241 0094 039A     		ldr	r2, [sp, #12]
 242              	.LBE6:
 126:Core/Src/stm32f4xx_hal_msp.c **** 
 243              		.loc 1 126 5 view .LVU63
 128:Core/Src/stm32f4xx_hal_msp.c ****     /**SPI2 GPIO Configuration
 244              		.loc 1 128 5 view .LVU64
 245              	.LBB7:
 128:Core/Src/stm32f4xx_hal_msp.c ****     /**SPI2 GPIO Configuration
 246              		.loc 1 128 5 view .LVU65
 247 0096 0491     		str	r1, [sp, #16]
 128:Core/Src/stm32f4xx_hal_msp.c ****     /**SPI2 GPIO Configuration
 248              		.loc 1 128 5 view .LVU66
 249 0098 1A6B     		ldr	r2, [r3, #48]
 250 009a 42F00202 		orr	r2, r2, #2
 251 009e 1A63     		str	r2, [r3, #48]
 128:Core/Src/stm32f4xx_hal_msp.c ****     /**SPI2 GPIO Configuration
 252              		.loc 1 128 5 view .LVU67
 253 00a0 1B6B     		ldr	r3, [r3, #48]
 254 00a2 03F00203 		and	r3, r3, #2
 255 00a6 0493     		str	r3, [sp, #16]
 128:Core/Src/stm32f4xx_hal_msp.c ****     /**SPI2 GPIO Configuration
 256              		.loc 1 128 5 view .LVU68
 257 00a8 049B     		ldr	r3, [sp, #16]
 258              	.LBE7:
 128:Core/Src/stm32f4xx_hal_msp.c ****     /**SPI2 GPIO Configuration
 259              		.loc 1 128 5 view .LVU69
 134:Core/Src/stm32f4xx_hal_msp.c ****     GPIO_InitStruct.Mode = GPIO_MODE_AF_PP;
 260              		.loc 1 134 5 view .LVU70
 134:Core/Src/stm32f4xx_hal_msp.c ****     GPIO_InitStruct.Mode = GPIO_MODE_AF_PP;
 261              		.loc 1 134 25 is_stmt 0 view .LVU71
 262 00aa 4FF46043 		mov	r3, #57344
 263 00ae 0593     		str	r3, [sp, #20]
 135:Core/Src/stm32f4xx_hal_msp.c ****     GPIO_InitStruct.Pull = GPIO_NOPULL;
 264              		.loc 1 135 5 is_stmt 1 view .LVU72
ARM GAS  C:\Users\virtu\AppData\Local\Temp\ccqpuMug.s 			page 9


 135:Core/Src/stm32f4xx_hal_msp.c ****     GPIO_InitStruct.Pull = GPIO_NOPULL;
 265              		.loc 1 135 26 is_stmt 0 view .LVU73
 266 00b0 0223     		movs	r3, #2
 267 00b2 0693     		str	r3, [sp, #24]
 136:Core/Src/stm32f4xx_hal_msp.c ****     GPIO_InitStruct.Speed = GPIO_SPEED_FREQ_VERY_HIGH;
 268              		.loc 1 136 5 is_stmt 1 view .LVU74
 137:Core/Src/stm32f4xx_hal_msp.c ****     GPIO_InitStruct.Alternate = GPIO_AF5_SPI2;
 269              		.loc 1 137 5 view .LVU75
 137:Core/Src/stm32f4xx_hal_msp.c ****     GPIO_InitStruct.Alternate = GPIO_AF5_SPI2;
 270              		.loc 1 137 27 is_stmt 0 view .LVU76
 271 00b4 0323     		movs	r3, #3
 272 00b6 0893     		str	r3, [sp, #32]
 138:Core/Src/stm32f4xx_hal_msp.c ****     HAL_GPIO_Init(GPIOB, &GPIO_InitStruct);
 273              		.loc 1 138 5 is_stmt 1 view .LVU77
 138:Core/Src/stm32f4xx_hal_msp.c ****     HAL_GPIO_Init(GPIOB, &GPIO_InitStruct);
 274              		.loc 1 138 31 is_stmt 0 view .LVU78
 275 00b8 0523     		movs	r3, #5
 276 00ba 0993     		str	r3, [sp, #36]
 139:Core/Src/stm32f4xx_hal_msp.c **** 
 277              		.loc 1 139 5 is_stmt 1 view .LVU79
 278 00bc 05A9     		add	r1, sp, #20
 279 00be 0648     		ldr	r0, .L11+16
 280              	.LVL7:
 139:Core/Src/stm32f4xx_hal_msp.c **** 
 281              		.loc 1 139 5 is_stmt 0 view .LVU80
 282 00c0 FFF7FEFF 		bl	HAL_GPIO_Init
 283              	.LVL8:
 284              		.loc 1 146 1 view .LVU81
 285 00c4 ABE7     		b	.L5
 286              	.L12:
 287 00c6 00BF     		.align	2
 288              	.L11:
 289 00c8 00300140 		.word	1073819648
 290 00cc 00380040 		.word	1073756160
 291 00d0 00380240 		.word	1073887232
 292 00d4 00000240 		.word	1073872896
 293 00d8 00040240 		.word	1073873920
 294              		.cfi_endproc
 295              	.LFE131:
 297              		.section	.text.HAL_SPI_MspDeInit,"ax",%progbits
 298              		.align	1
 299              		.global	HAL_SPI_MspDeInit
 300              		.syntax unified
 301              		.thumb
 302              		.thumb_func
 304              	HAL_SPI_MspDeInit:
 305              	.LVL9:
 306              	.LFB132:
 147:Core/Src/stm32f4xx_hal_msp.c **** 
 148:Core/Src/stm32f4xx_hal_msp.c **** /**
 149:Core/Src/stm32f4xx_hal_msp.c **** * @brief SPI MSP De-Initialization
 150:Core/Src/stm32f4xx_hal_msp.c **** * This function freeze the hardware resources used in this example
 151:Core/Src/stm32f4xx_hal_msp.c **** * @param hspi: SPI handle pointer
 152:Core/Src/stm32f4xx_hal_msp.c **** * @retval None
 153:Core/Src/stm32f4xx_hal_msp.c **** */
 154:Core/Src/stm32f4xx_hal_msp.c **** void HAL_SPI_MspDeInit(SPI_HandleTypeDef* hspi)
 155:Core/Src/stm32f4xx_hal_msp.c **** {
ARM GAS  C:\Users\virtu\AppData\Local\Temp\ccqpuMug.s 			page 10


 307              		.loc 1 155 1 is_stmt 1 view -0
 308              		.cfi_startproc
 309              		@ args = 0, pretend = 0, frame = 0
 310              		@ frame_needed = 0, uses_anonymous_args = 0
 311              		.loc 1 155 1 is_stmt 0 view .LVU83
 312 0000 08B5     		push	{r3, lr}
 313              	.LCFI6:
 314              		.cfi_def_cfa_offset 8
 315              		.cfi_offset 3, -8
 316              		.cfi_offset 14, -4
 156:Core/Src/stm32f4xx_hal_msp.c ****   if(hspi->Instance==SPI1)
 317              		.loc 1 156 3 is_stmt 1 view .LVU84
 318              		.loc 1 156 10 is_stmt 0 view .LVU85
 319 0002 0368     		ldr	r3, [r0]
 320              		.loc 1 156 5 view .LVU86
 321 0004 0E4A     		ldr	r2, .L19
 322 0006 9342     		cmp	r3, r2
 323 0008 03D0     		beq	.L17
 157:Core/Src/stm32f4xx_hal_msp.c ****   {
 158:Core/Src/stm32f4xx_hal_msp.c ****   /* USER CODE BEGIN SPI1_MspDeInit 0 */
 159:Core/Src/stm32f4xx_hal_msp.c **** 
 160:Core/Src/stm32f4xx_hal_msp.c ****   /* USER CODE END SPI1_MspDeInit 0 */
 161:Core/Src/stm32f4xx_hal_msp.c ****     /* Peripheral clock disable */
 162:Core/Src/stm32f4xx_hal_msp.c ****     __HAL_RCC_SPI1_CLK_DISABLE();
 163:Core/Src/stm32f4xx_hal_msp.c **** 
 164:Core/Src/stm32f4xx_hal_msp.c ****     /**SPI1 GPIO Configuration
 165:Core/Src/stm32f4xx_hal_msp.c ****     PA5     ------> SPI1_SCK
 166:Core/Src/stm32f4xx_hal_msp.c ****     PA6     ------> SPI1_MISO
 167:Core/Src/stm32f4xx_hal_msp.c ****     PA7     ------> SPI1_MOSI
 168:Core/Src/stm32f4xx_hal_msp.c ****     */
 169:Core/Src/stm32f4xx_hal_msp.c ****     HAL_GPIO_DeInit(GPIOA, GPIO_PIN_5|GPIO_PIN_6|GPIO_PIN_7);
 170:Core/Src/stm32f4xx_hal_msp.c **** 
 171:Core/Src/stm32f4xx_hal_msp.c ****   /* USER CODE BEGIN SPI1_MspDeInit 1 */
 172:Core/Src/stm32f4xx_hal_msp.c **** 
 173:Core/Src/stm32f4xx_hal_msp.c ****   /* USER CODE END SPI1_MspDeInit 1 */
 174:Core/Src/stm32f4xx_hal_msp.c ****   }
 175:Core/Src/stm32f4xx_hal_msp.c ****   else if(hspi->Instance==SPI2)
 324              		.loc 1 175 8 is_stmt 1 view .LVU87
 325              		.loc 1 175 10 is_stmt 0 view .LVU88
 326 000a 0E4A     		ldr	r2, .L19+4
 327 000c 9342     		cmp	r3, r2
 328 000e 0BD0     		beq	.L18
 329              	.LVL10:
 330              	.L13:
 176:Core/Src/stm32f4xx_hal_msp.c ****   {
 177:Core/Src/stm32f4xx_hal_msp.c ****   /* USER CODE BEGIN SPI2_MspDeInit 0 */
 178:Core/Src/stm32f4xx_hal_msp.c **** 
 179:Core/Src/stm32f4xx_hal_msp.c ****   /* USER CODE END SPI2_MspDeInit 0 */
 180:Core/Src/stm32f4xx_hal_msp.c ****     /* Peripheral clock disable */
 181:Core/Src/stm32f4xx_hal_msp.c ****     __HAL_RCC_SPI2_CLK_DISABLE();
 182:Core/Src/stm32f4xx_hal_msp.c **** 
 183:Core/Src/stm32f4xx_hal_msp.c ****     /**SPI2 GPIO Configuration
 184:Core/Src/stm32f4xx_hal_msp.c ****     PB13     ------> SPI2_SCK
 185:Core/Src/stm32f4xx_hal_msp.c ****     PB14     ------> SPI2_MISO
 186:Core/Src/stm32f4xx_hal_msp.c ****     PB15     ------> SPI2_MOSI
 187:Core/Src/stm32f4xx_hal_msp.c ****     */
 188:Core/Src/stm32f4xx_hal_msp.c ****     HAL_GPIO_DeInit(GPIOB, GPIO_PIN_13|GPIO_PIN_14|GPIO_PIN_15);
ARM GAS  C:\Users\virtu\AppData\Local\Temp\ccqpuMug.s 			page 11


 189:Core/Src/stm32f4xx_hal_msp.c **** 
 190:Core/Src/stm32f4xx_hal_msp.c ****   /* USER CODE BEGIN SPI2_MspDeInit 1 */
 191:Core/Src/stm32f4xx_hal_msp.c **** 
 192:Core/Src/stm32f4xx_hal_msp.c ****   /* USER CODE END SPI2_MspDeInit 1 */
 193:Core/Src/stm32f4xx_hal_msp.c ****   }
 194:Core/Src/stm32f4xx_hal_msp.c **** 
 195:Core/Src/stm32f4xx_hal_msp.c **** }
 331              		.loc 1 195 1 view .LVU89
 332 0010 08BD     		pop	{r3, pc}
 333              	.LVL11:
 334              	.L17:
 162:Core/Src/stm32f4xx_hal_msp.c **** 
 335              		.loc 1 162 5 is_stmt 1 view .LVU90
 336 0012 02F58432 		add	r2, r2, #67584
 337 0016 536C     		ldr	r3, [r2, #68]
 338 0018 23F48053 		bic	r3, r3, #4096
 339 001c 5364     		str	r3, [r2, #68]
 169:Core/Src/stm32f4xx_hal_msp.c **** 
 340              		.loc 1 169 5 view .LVU91
 341 001e E021     		movs	r1, #224
 342 0020 0948     		ldr	r0, .L19+8
 343              	.LVL12:
 169:Core/Src/stm32f4xx_hal_msp.c **** 
 344              		.loc 1 169 5 is_stmt 0 view .LVU92
 345 0022 FFF7FEFF 		bl	HAL_GPIO_DeInit
 346              	.LVL13:
 347 0026 F3E7     		b	.L13
 348              	.LVL14:
 349              	.L18:
 181:Core/Src/stm32f4xx_hal_msp.c **** 
 350              		.loc 1 181 5 is_stmt 1 view .LVU93
 351 0028 02F50032 		add	r2, r2, #131072
 352 002c 136C     		ldr	r3, [r2, #64]
 353 002e 23F48043 		bic	r3, r3, #16384
 354 0032 1364     		str	r3, [r2, #64]
 188:Core/Src/stm32f4xx_hal_msp.c **** 
 355              		.loc 1 188 5 view .LVU94
 356 0034 4FF46041 		mov	r1, #57344
 357 0038 0448     		ldr	r0, .L19+12
 358              	.LVL15:
 188:Core/Src/stm32f4xx_hal_msp.c **** 
 359              		.loc 1 188 5 is_stmt 0 view .LVU95
 360 003a FFF7FEFF 		bl	HAL_GPIO_DeInit
 361              	.LVL16:
 362              		.loc 1 195 1 view .LVU96
 363 003e E7E7     		b	.L13
 364              	.L20:
 365              		.align	2
 366              	.L19:
 367 0040 00300140 		.word	1073819648
 368 0044 00380040 		.word	1073756160
 369 0048 00000240 		.word	1073872896
 370 004c 00040240 		.word	1073873920
 371              		.cfi_endproc
 372              	.LFE132:
 374              		.text
 375              	.Letext0:
ARM GAS  C:\Users\virtu\AppData\Local\Temp\ccqpuMug.s 			page 12


 376              		.file 2 "c:\\program files (x86)\\gnu arm embedded toolchain\\10 2021.10\\arm-none-eabi\\include\\
 377              		.file 3 "c:\\program files (x86)\\gnu arm embedded toolchain\\10 2021.10\\arm-none-eabi\\include\\
 378              		.file 4 "Drivers/CMSIS/Device/ST/STM32F4xx/Include/stm32f411xe.h"
 379              		.file 5 "Drivers/STM32F4xx_HAL_Driver/Inc/stm32f4xx_hal_def.h"
 380              		.file 6 "Drivers/STM32F4xx_HAL_Driver/Inc/stm32f4xx_hal_gpio.h"
 381              		.file 7 "Drivers/STM32F4xx_HAL_Driver/Inc/stm32f4xx_hal_dma.h"
 382              		.file 8 "Drivers/STM32F4xx_HAL_Driver/Inc/stm32f4xx_hal_spi.h"
ARM GAS  C:\Users\virtu\AppData\Local\Temp\ccqpuMug.s 			page 13

